target datalayout = "e-m:e-p270:32:32-p271:32:32-p272:64:64-i64:64-i128:128-f80:128-n8:16:32:64-S128"
target triple = "x86_64-pc-linux-gnu"

%struct.ThreadData = type { ptr, ptr, ptr, ptr, i32, i32 }
%struct.AVComplexFloat = type { float, float }

; Function Attrs: nounwind uwtable
define internal i32 @complex_xcorrelate(ptr noundef %0, ptr noundef %1, i32 noundef %2, i32 noundef %3) #0 {
  %5 = alloca ptr, align 8
  %6 = alloca ptr, align 8
  %7 = alloca i32, align 4
  %8 = alloca i32, align 4
  %9 = alloca ptr, align 8
  %10 = alloca ptr, align 8
  %11 = alloca ptr, align 8
  %12 = alloca i32, align 4
  %13 = alloca float, align 4
  %14 = alloca i32, align 4
  %15 = alloca i32, align 4
  %16 = alloca i32, align 4
  %17 = alloca i32, align 4
  %18 = alloca i32, align 4
  %19 = alloca i32, align 4
  %20 = alloca float, align 4
  %21 = alloca float, align 4
  %22 = alloca float, align 4
  %23 = alloca float, align 4
  store ptr %0, ptr %5, align 8, !tbaa !4
  store ptr %1, ptr %6, align 8, !tbaa !92
  store i32 %2, ptr %7, align 4, !tbaa !37
  store i32 %3, ptr %8, align 4, !tbaa !37
  call void @llvm.lifetime.start.p0(i64 8, ptr %9) #10
  %24 = load ptr, ptr %6, align 8, !tbaa !92
  store ptr %24, ptr %9, align 8, !tbaa !93
  call void @llvm.lifetime.start.p0(i64 8, ptr %10) #10
  %25 = load ptr, ptr %9, align 8, !tbaa !93
  %26 = getelementptr inbounds nuw %struct.ThreadData, ptr %25, i32 0, i32 0
  %27 = load ptr, ptr %26, align 8, !tbaa !86
  store ptr %27, ptr %10, align 8, !tbaa !63
  call void @llvm.lifetime.start.p0(i64 8, ptr %11) #10
  %28 = load ptr, ptr %9, align 8, !tbaa !93
  %29 = getelementptr inbounds nuw %struct.ThreadData, ptr %28, i32 0, i32 1
  %30 = load ptr, ptr %29, align 8, !tbaa !87
  store ptr %30, ptr %11, align 8, !tbaa !63
  call void @llvm.lifetime.start.p0(i64 4, ptr %12) #10
  %31 = load ptr, ptr %9, align 8, !tbaa !93
  %32 = getelementptr inbounds nuw %struct.ThreadData, ptr %31, i32 0, i32 5
  %33 = load i32, ptr %32, align 4, !tbaa !85
  store i32 %33, ptr %12, align 4, !tbaa !37
  call void @llvm.lifetime.start.p0(i64 4, ptr %13) #10
  %34 = load i32, ptr %12, align 4, !tbaa !37
  %35 = load i32, ptr %12, align 4, !tbaa !37
  %36 = mul nsw i32 %34, %35
  %37 = sitofp i32 %36 to float
  %38 = fdiv nsz float 1.000000e+00, %37
  store float %38, ptr %13, align 4, !tbaa !73
  call void @llvm.lifetime.start.p0(i64 4, ptr %14) #10
  %39 = load i32, ptr %12, align 4, !tbaa !37
  %40 = load i32, ptr %7, align 4, !tbaa !37
  %41 = mul nsw i32 %39, %40
  %42 = load i32, ptr %8, align 4, !tbaa !37
  %43 = sdiv i32 %41, %42
  store i32 %43, ptr %14, align 4, !tbaa !37
  call void @llvm.lifetime.start.p0(i64 4, ptr %15) #10
  %44 = load i32, ptr %12, align 4, !tbaa !37
  %45 = load i32, ptr %7, align 4, !tbaa !37
  %46 = add nsw i32 %45, 1
  %47 = mul nsw i32 %44, %46
  %48 = load i32, ptr %8, align 4, !tbaa !37
  %49 = sdiv i32 %47, %48
  store i32 %49, ptr %15, align 4, !tbaa !37
  call void @llvm.lifetime.start.p0(i64 4, ptr %16) #10
  %50 = load i32, ptr %14, align 4, !tbaa !37
  store i32 %50, ptr %16, align 4, !tbaa !37
  br label %51

51:                                               ; preds = %134, %4
  %52 = load i32, ptr %16, align 4, !tbaa !37
  %53 = load i32, ptr %15, align 4, !tbaa !37
  %54 = icmp slt i32 %52, %53
  br i1 %54, label %56, label %55

55:                                               ; preds = %51
  store i32 2, ptr %17, align 4
  call void @llvm.lifetime.end.p0(i64 4, ptr %16) #10
  br label %137

56:                                               ; preds = %51
  call void @llvm.lifetime.start.p0(i64 4, ptr %18) #10
  %57 = load i32, ptr %16, align 4, !tbaa !37
  %58 = load i32, ptr %12, align 4, !tbaa !37
  %59 = mul nsw i32 %57, %58
  store i32 %59, ptr %18, align 4, !tbaa !37
  call void @llvm.lifetime.start.p0(i64 4, ptr %19) #10
  store i32 0, ptr %19, align 4, !tbaa !37
  br label %60

60:                                               ; preds = %130, %56
  %61 = load i32, ptr %19, align 4, !tbaa !37
  %62 = load i32, ptr %12, align 4, !tbaa !37
  %63 = icmp slt i32 %61, %62
  br i1 %63, label %65, label %64

64:                                               ; preds = %60
  store i32 5, ptr %17, align 4
  call void @llvm.lifetime.end.p0(i64 4, ptr %19) #10
  br label %133

65:                                               ; preds = %60
  call void @llvm.lifetime.start.p0(i64 4, ptr %20) #10
  call void @llvm.lifetime.start.p0(i64 4, ptr %21) #10
  call void @llvm.lifetime.start.p0(i64 4, ptr %22) #10
  call void @llvm.lifetime.start.p0(i64 4, ptr %23) #10
  %66 = load ptr, ptr %10, align 8, !tbaa !63
  %67 = load i32, ptr %18, align 4, !tbaa !37
  %68 = load i32, ptr %19, align 4, !tbaa !37
  %69 = add nsw i32 %67, %68
  %70 = sext i32 %69 to i64
  %71 = getelementptr inbounds %struct.AVComplexFloat, ptr %66, i64 %70
  %72 = getelementptr inbounds nuw %struct.AVComplexFloat, ptr %71, i32 0, i32 0
  %73 = load float, ptr %72, align 4, !tbaa !98
  store float %73, ptr %20, align 4, !tbaa !73
  %74 = load ptr, ptr %10, align 8, !tbaa !63
  %75 = load i32, ptr %18, align 4, !tbaa !37
  %76 = load i32, ptr %19, align 4, !tbaa !37
  %77 = add nsw i32 %75, %76
  %78 = sext i32 %77 to i64
  %79 = getelementptr inbounds %struct.AVComplexFloat, ptr %74, i64 %78
  %80 = getelementptr inbounds nuw %struct.AVComplexFloat, ptr %79, i32 0, i32 1
  %81 = load float, ptr %80, align 4, !tbaa !100
  store float %81, ptr %21, align 4, !tbaa !73
  %82 = load ptr, ptr %11, align 8, !tbaa !63
  %83 = load i32, ptr %18, align 4, !tbaa !37
  %84 = load i32, ptr %19, align 4, !tbaa !37
  %85 = add nsw i32 %83, %84
  %86 = sext i32 %85 to i64
  %87 = getelementptr inbounds %struct.AVComplexFloat, ptr %82, i64 %86
  %88 = getelementptr inbounds nuw %struct.AVComplexFloat, ptr %87, i32 0, i32 0
  %89 = load float, ptr %88, align 4, !tbaa !98
  %90 = load float, ptr %13, align 4, !tbaa !73
  %91 = fmul nsz float %89, %90
  store float %91, ptr %22, align 4, !tbaa !73
  %92 = load ptr, ptr %11, align 8, !tbaa !63
  %93 = load i32, ptr %18, align 4, !tbaa !37
  %94 = load i32, ptr %19, align 4, !tbaa !37
  %95 = add nsw i32 %93, %94
  %96 = sext i32 %95 to i64
  %97 = getelementptr inbounds %struct.AVComplexFloat, ptr %92, i64 %96
  %98 = getelementptr inbounds nuw %struct.AVComplexFloat, ptr %97, i32 0, i32 1
  %99 = load float, ptr %98, align 4, !tbaa !100
  %100 = fneg nsz float %99
  %101 = load float, ptr %13, align 4, !tbaa !73
  %102 = fmul nsz float %100, %101
  store float %102, ptr %23, align 4, !tbaa !73
  %103 = load float, ptr %22, align 4, !tbaa !73
  %104 = load float, ptr %20, align 4, !tbaa !73
  %105 = load float, ptr %23, align 4, !tbaa !73
  %106 = load float, ptr %21, align 4, !tbaa !73
  %107 = fmul nsz float %105, %106
  %108 = fneg nsz float %107
  %109 = call nsz float @llvm.fmuladd.f32(float %103, float %104, float %108)
  %110 = load ptr, ptr %10, align 8, !tbaa !63
  %111 = load i32, ptr %18, align 4, !tbaa !37
  %112 = load i32, ptr %19, align 4, !tbaa !37
  %113 = add nsw i32 %111, %112
  %114 = sext i32 %113 to i64
  %115 = getelementptr inbounds %struct.AVComplexFloat, ptr %110, i64 %114
  %116 = getelementptr inbounds nuw %struct.AVComplexFloat, ptr %115, i32 0, i32 0
  store float %109, ptr %116, align 4, !tbaa !98
  %117 = load float, ptr %23, align 4, !tbaa !73
  %118 = load float, ptr %20, align 4, !tbaa !73
  %119 = load float, ptr %22, align 4, !tbaa !73
  %120 = load float, ptr %21, align 4, !tbaa !73
  %121 = fmul nsz float %119, %120
  %122 = call nsz float @llvm.fmuladd.f32(float %117, float %118, float %121)
  %123 = load ptr, ptr %10, align 8, !tbaa !63
  %124 = load i32, ptr %18, align 4, !tbaa !37
  %125 = load i32, ptr %19, align 4, !tbaa !37
  %126 = add nsw i32 %124, %125
  %127 = sext i32 %126 to i64
  %128 = getelementptr inbounds %struct.AVComplexFloat, ptr %123, i64 %127
  %129 = getelementptr inbounds nuw %struct.AVComplexFloat, ptr %128, i32 0, i32 1
  store float %122, ptr %129, align 4, !tbaa !100
  call void @llvm.lifetime.end.p0(i64 4, ptr %23) #10
  call void @llvm.lifetime.end.p0(i64 4, ptr %22) #10
  call void @llvm.lifetime.end.p0(i64 4, ptr %21) #10
  call void @llvm.lifetime.end.p0(i64 4, ptr %20) #10
  br label %130

130:                                              ; preds = %65
  %131 = load i32, ptr %19, align 4, !tbaa !37
  %132 = add nsw i32 %131, 1
  store i32 %132, ptr %19, align 4, !tbaa !37
  br label %60, !llvm.loop !150

133:                                              ; preds = %64
  call void @llvm.lifetime.end.p0(i64 4, ptr %18) #10
  br label %134

134:                                              ; preds = %133
  %135 = load i32, ptr %16, align 4, !tbaa !37
  %136 = add nsw i32 %135, 1
  store i32 %136, ptr %16, align 4, !tbaa !37
  br label %51, !llvm.loop !151

137:                                              ; preds = %55
  store i32 1, ptr %17, align 4
  call void @llvm.lifetime.end.p0(i64 4, ptr %15) #10
  call void @llvm.lifetime.end.p0(i64 4, ptr %14) #10
  call void @llvm.lifetime.end.p0(i64 4, ptr %13) #10
  call void @llvm.lifetime.end.p0(i64 4, ptr %12) #10
  call void @llvm.lifetime.end.p0(i64 8, ptr %11) #10
  call void @llvm.lifetime.end.p0(i64 8, ptr %10) #10
  call void @llvm.lifetime.end.p0(i64 8, ptr %9) #10
  ret i32 0
}