; Function Attrs: nofree norecurse nosync nounwind memory(readwrite, inaccessiblemem: none) uwtable
define internal noundef i32 @complex_xcorrelate(ptr readnone captures(none) %0, ptr noundef readonly captures(none) %1, i32 noundef %2, i32 noundef %3) #8 {
  %5 = load ptr, ptr %1, align 8, !tbaa !76
  %6 = getelementptr inbounds nuw i8, ptr %1, i64 8
  %7 = load ptr, ptr %6, align 8, !tbaa !77
  %8 = getelementptr inbounds nuw i8, ptr %1, i64 36
  %9 = load i32, ptr %8, align 4, !tbaa !75
  %10 = mul nsw i32 %9, %9
  %11 = uitofp nneg i32 %10 to float
  %12 = fdiv nsz float 1.000000e+00, %11
  %13 = mul nsw i32 %9, %2
  %14 = sdiv i32 %13, %3
  %15 = add nsw i32 %2, 1
  %16 = mul nsw i32 %9, %15
  %17 = sdiv i32 %16, %3
  %18 = icmp slt i32 %14, %17
  %19 = icmp sgt i32 %9, 0
  %or.cond = and i1 %18, %19
  br i1 %or.cond, label %.lr.ph.us.preheader, label %._crit_edge53

.lr.ph.us.preheader:                              ; preds = %4
  %20 = sext i32 %14 to i64
  %21 = zext nneg i32 %9 to i64
  %wide.trip.count59 = sext i32 %17 to i64
  %wide.trip.count = zext nneg i32 %9 to i64
  br label %.lr.ph.us

.lr.ph.us:                                        ; preds = %.lr.ph.us.preheader, %._crit_edge.us
  %indvars.iv56 = phi i64 [ %20, %.lr.ph.us.preheader ], [ %indvars.iv.next57, %._crit_edge.us ]
  %22 = mul nsw i64 %indvars.iv56, %21
  br label %23

23:                                               ; preds = %.lr.ph.us, %23
  %indvars.iv = phi i64 [ 0, %.lr.ph.us ], [ %indvars.iv.next, %23 ]
  %24 = add nsw i64 %indvars.iv, %22
  %25 = getelementptr inbounds %struct.AVComplexFloat, ptr %5, i64 %24
  %26 = load float, ptr %25, align 4, !tbaa !86
  %27 = getelementptr inbounds nuw i8, ptr %25, i64 4
  %28 = load float, ptr %27, align 4, !tbaa !88
  %29 = getelementptr inbounds %struct.AVComplexFloat, ptr %7, i64 %24
  %30 = load float, ptr %29, align 4, !tbaa !86
  %31 = fmul nsz float %12, %30
  %32 = getelementptr inbounds nuw i8, ptr %29, i64 4
  %33 = load float, ptr %32, align 4, !tbaa !88
  %34 = fneg nsz float %33
  %35 = fmul nsz float %12, %34
  %36 = fneg nsz float %28
  %37 = fmul nsz float %35, %36
  %38 = tail call nsz float @llvm.fmuladd.f32(float %31, float %26, float %37)
  store float %38, ptr %25, align 4, !tbaa !86
  %39 = fmul nsz float %28, %31
  %40 = tail call nsz float @llvm.fmuladd.f32(float %35, float %26, float %39)
  store float %40, ptr %27, align 4, !tbaa !88
  %indvars.iv.next = add nuw nsw i64 %indvars.iv, 1
  %exitcond.not = icmp eq i64 %indvars.iv.next, %wide.trip.count
  br i1 %exitcond.not, label %._crit_edge.us, label %23, !llvm.loop !136

._crit_edge.us:                                   ; preds = %23
  %indvars.iv.next57 = add nsw i64 %indvars.iv56, 1
  %exitcond60.not = icmp eq i64 %indvars.iv.next57, %wide.trip.count59
  br i1 %exitcond60.not, label %._crit_edge53, label %.lr.ph.us, !llvm.loop !137

._crit_edge53:                                    ; preds = %._crit_edge.us, %4
  ret i32 0
}